c__builtin__
set
p0
((lp1
S'CODE'
p2
aS'.rdata'
p3
aS'_UNK_'
p4
aS'/26'
p5
aS'.buildid'
p6
aS'.rsrc'
p7
aS'.orpc'
p8
aS'.Tls'
p9
aS'.gnu_deb'
p10
aS'GAP'
p11
aS'DATA'
p12
aS'.text'
p13
aS'.gfids'
p14
aS'.rata'
p15
aS'BSS'
p16
aS'minATL'
p17
aS'.tls'
p18
aS'.data'
p19
aS'/16'
p20
aS'/14'
p21
aS'.edata'
p22
aS'.CRT'
p23
aS'.reloc'
p24
aS'HEADER'
p25
aS'.xdata'
p26
aS'.idata'
p27
aS'.bss'
p28
aS'PAGEWdfV'
p29
aS'.code'
p30
aS'/4'
p31
atp32
Rp33
.