c__builtin__
set
p0
((lp1
S'CODE'
p2
aS'.rdata'
p3
aS'.buildid'
p4
aS'.rsrc'
p5
aS'.orpc'
p6
aS'.Tls'
p7
aS'.gnu_deb'
p8
aS'.gfids'
p9
aS'DATA'
p10
aS'.text'
p11
aS'.rata'
p12
aS'BSS'
p13
aS'minATL'
p14
aS'.tls'
p15
aS'.data'
p16
aS'_UNK_'
p17
aS'/14'
p18
aS'.edata'
p19
aS'.CRT'
p20
aS'.reloc'
p21
aS'HEADER'
p22
aS'.idata'
p23
aS'.bss'
p24
aS'.code'
p25
aS'/4'
p26
atp27
Rp28
.