c__builtin__
set
p0
((lp1
S'CODE'
p2
aS'.rdata'
p3
aS'.buildid'
p4
aS'.rsrc'
p5
aS'.orpc'
p6
aS'.gnu_deb'
p7
aS'GAP'
p8
aS'DATA'
p9
aS'.text'
p10
aS'.gfids'
p11
aS'BSS'
p12
aS'minATL'
p13
aS'.tls'
p14
aS'.data'
p15
aS'_UNK_'
p16
aS'/14'
p17
aS'.edata'
p18
aS'.CRT'
p19
aS'.reloc'
p20
aS'HEADER'
p21
aS'.idata'
p22
aS'.bss'
p23
aS'PAGEWdfV'
p24
aS'.code'
p25
aS'/4'
p26
atp27
Rp28
.