c__builtin__
set
p0
((lp1
S'CODE'
p2
aS'.rdata'
p3
aS'_UNK_'
p4
aS'/26'
p5
aS'.buildid'
p6
aS'.rsrc'
p7
aS'.orpc'
p8
aS'.Tls'
p9
aS'.gnu_deb'
p10
aS'.gfids'
p11
aS'DATA'
p12
aS'.text'
p13
aS'.rata'
p14
aS'BSS'
p15
aS'minATL'
p16
aS'.tls'
p17
aS'.data'
p18
aS'/16'
p19
aS'/14'
p20
aS'.edata'
p21
aS'.CRT'
p22
aS'.reloc'
p23
aS'HEADER'
p24
aS'.xdata'
p25
aS'.idata'
p26
aS'.bss'
p27
aS'PAGEWdfV'
p28
aS'.code'
p29
aS'/4'
p30
atp31
Rp32
.